; Function Attrs: mustprogress uwtable
define hidden noundef ptr @_ZN4ncnn3Net19create_custom_layerEi(ptr noundef nonnull readonly align 8 captures(none) dereferenceable(80) %0, i32 noundef %1) unnamed_addr #2 align 2 {
  %3 = getelementptr inbounds nuw i8, ptr %0, i64 72
  %4 = load ptr, ptr %3, align 8, !tbaa !7
  %5 = getelementptr inbounds nuw i8, ptr %4, i64 152
  %6 = getelementptr inbounds nuw i8, ptr %4, i64 160
  %7 = load ptr, ptr %6, align 8, !tbaa !16
  %8 = load ptr, ptr %5, align 8, !tbaa !19
  %9 = ptrtoint ptr %7 to i64
  %10 = ptrtoint ptr %8 to i64
  %11 = sub i64 %9, %10
  %12 = ashr exact i64 %11, 5
  %13 = icmp sgt i32 %1, -1
  %14 = zext nneg i32 %1 to i64
  %.not = icmp ugt i64 %12, %14
  %or.cond = select i1 %13, i1 %.not, i1 false
  br i1 %or.cond, label %15, label %25

15:                                               ; preds = %2
  %16 = getelementptr inbounds nuw %"struct.ncnn::custom_layer_registry_entry", ptr %8, i64 %14
  %17 = getelementptr inbounds nuw i8, ptr %16, i64 8
  %18 = load ptr, ptr %17, align 8, !tbaa !25
  %.not13 = icmp eq ptr %18, null
  br i1 %.not13, label %25, label %19

19:                                               ; preds = %15
  %20 = getelementptr inbounds nuw i8, ptr %16, i64 24
  %21 = load ptr, ptr %20, align 8, !tbaa !26
  %22 = tail call noundef ptr %18(ptr noundef %21)
  %23 = or i32 %1, 256
  %24 = getelementptr inbounds nuw i8, ptr %22, i64 40
  store i32 %23, ptr %24, align 8, !tbaa !27
  br label %25

25:                                               ; preds = %19, %15, %2
  %.0 = phi ptr [ null, %2 ], [ %22, %19 ], [ null, %15 ]
  ret ptr %.0
}